target datalayout = "e-m:e-p270:32:32-p271:32:32-p272:64:64-i64:64-i128:128-f80:128-n8:16:32:64-S128"
target triple = "x86_64-pc-linux-gnu"

%struct.H5Z_cb_t = type { ptr, ptr }
%struct.H5T_vlen_alloc_info_t = type { ptr, ptr, ptr, ptr }
%struct.H5T_conv_cb_t = type { ptr, ptr }
%struct.H5CX_node_t = type { %struct.H5CX_t, ptr }
%struct.H5CX_t = type { i64, ptr, i64, ptr, i64, ptr, i64, ptr, i64, ptr, i64, ptr, i64, i32, i64, i8, ptr, i8, ptr, i8, i32, i8, [3 x double], i8, i64, i8, i32, i8, %struct.H5Z_cb_t, i8, ptr, i8, %struct.H5T_vlen_alloc_info_t, i8, %struct.H5T_conv_cb_t, i8, i32, i8, i8, i8, i32, i8, i8, i32, i8, i8, i32, i8, i32, i8, i64, i8, i8, i8, i8, i8, ptr, i8, ptr, i8, i32, i8, i32, i8, %struct.H5VL_connector_prop_t, i8, ptr, i8 }
%struct.H5VL_connector_prop_t = type { i64, ptr }

@H5CX_head_g = internal global ptr null, align 8

; Function Attrs: nounwind uwtable
define i32 @H5CX_set_vlen_alloc_info(ptr noundef %0, ptr noundef %1, ptr noundef %2, ptr noundef %3) #0 {
  %5 = alloca ptr, align 8
  %6 = alloca ptr, align 8
  %7 = alloca ptr, align 8
  %8 = alloca ptr, align 8
  %9 = alloca ptr, align 8
  %10 = alloca i32, align 4
  store ptr %0, ptr %5, align 8
  store ptr %1, ptr %6, align 8
  store ptr %2, ptr %7, align 8
  store ptr %3, ptr %8, align 8
  store ptr null, ptr %9, align 8
  store i32 0, ptr %10, align 4
  store ptr @H5CX_head_g, ptr %9, align 8
  %11 = load ptr, ptr %5, align 8
  %12 = load ptr, ptr %9, align 8
  %13 = load ptr, ptr %12, align 8
  %14 = getelementptr inbounds %struct.H5CX_node_t, ptr %13, i32 0, i32 0
  %15 = getelementptr inbounds %struct.H5CX_t, ptr %14, i32 0, i32 32
  %16 = getelementptr inbounds %struct.H5T_vlen_alloc_info_t, ptr %15, i32 0, i32 0
  store ptr %11, ptr %16, align 8
  %17 = load ptr, ptr %6, align 8
  %18 = load ptr, ptr %9, align 8
  %19 = load ptr, ptr %18, align 8
  %20 = getelementptr inbounds %struct.H5CX_node_t, ptr %19, i32 0, i32 0
  %21 = getelementptr inbounds %struct.H5CX_t, ptr %20, i32 0, i32 32
  %22 = getelementptr inbounds %struct.H5T_vlen_alloc_info_t, ptr %21, i32 0, i32 1
  store ptr %17, ptr %22, align 8
  %23 = load ptr, ptr %7, align 8
  %24 = load ptr, ptr %9, align 8
  %25 = load ptr, ptr %24, align 8
  %26 = getelementptr inbounds %struct.H5CX_node_t, ptr %25, i32 0, i32 0
  %27 = getelementptr inbounds %struct.H5CX_t, ptr %26, i32 0, i32 32
  %28 = getelementptr inbounds %struct.H5T_vlen_alloc_info_t, ptr %27, i32 0, i32 2
  store ptr %23, ptr %28, align 8
  %29 = load ptr, ptr %8, align 8
  %30 = load ptr, ptr %9, align 8
  %31 = load ptr, ptr %30, align 8
  %32 = getelementptr inbounds %struct.H5CX_node_t, ptr %31, i32 0, i32 0
  %33 = getelementptr inbounds %struct.H5CX_t, ptr %32, i32 0, i32 32
  %34 = getelementptr inbounds %struct.H5T_vlen_alloc_info_t, ptr %33, i32 0, i32 3
  store ptr %29, ptr %34, align 8
  %35 = load ptr, ptr %9, align 8
  %36 = load ptr, ptr %35, align 8
  %37 = getelementptr inbounds %struct.H5CX_node_t, ptr %36, i32 0, i32 0
  %38 = getelementptr inbounds %struct.H5CX_t, ptr %37, i32 0, i32 33
  store i8 1, ptr %38, align 8
  %39 = load i32, ptr %10, align 4
  ret i32 %39
}