; Function Attrs: mustprogress nofree norecurse nosync nounwind willreturn memory(readwrite, argmem: write, inaccessiblemem: none) uwtable
define noundef i32 @H5CX_set_vlen_alloc_info(ptr noundef %0, ptr noundef %1, ptr noundef %2, ptr noundef %3) local_unnamed_addr #11 {
  %5 = load ptr, ptr @H5CX_head_g, align 8
  %6 = getelementptr inbounds i8, ptr %5, i64 264
  store ptr %0, ptr %6, align 8
  %7 = getelementptr inbounds i8, ptr %5, i64 272
  store ptr %1, ptr %7, align 8
  %8 = getelementptr inbounds i8, ptr %5, i64 280
  store ptr %2, ptr %8, align 8
  %9 = getelementptr inbounds i8, ptr %5, i64 288
  store ptr %3, ptr %9, align 8
  %10 = getelementptr inbounds i8, ptr %5, i64 296
  store i8 1, ptr %10, align 8
  ret i32 0
}